; Function Attrs: nounwind uwtable
define dso_local void @set_node_down_ptr(ptr noundef %0, ptr noundef %1) local_unnamed_addr #0 {
  %3 = tail call i64 @time(ptr noundef null) #15
  tail call void @set_node_reason(ptr noundef %0, ptr noundef %1, i64 noundef %3)
  tail call fastcc void @_make_node_down(ptr noundef %0, i64 noundef %3)
  %4 = getelementptr inbounds nuw i8, ptr %0, i64 272
  %5 = load ptr, ptr %4, align 8
  %6 = tail call i32 @kill_running_job_by_node_name(ptr noundef %5) #15
  tail call fastcc void @_sync_bitmaps(ptr noundef %0, i32 noundef 0)
  ret void
}